target datalayout = "e-m:e-p270:32:32-p271:32:32-p272:64:64-i64:64-i128:128-f80:128-n8:16:32:64-S128"
target triple = "x86_64-pc-linux-gnu"

%struct.lexbor_bst = type { ptr, ptr, i64 }
%struct.lexbor_bst_entry = type { ptr, ptr, ptr, ptr, ptr, i64 }

; Function Attrs: nounwind uwtable
define hidden ptr @lexbor_bst_remove_by_pointer(ptr noundef %0, ptr noundef %1, ptr noundef %2) #0 {
  %4 = alloca ptr, align 8
  %5 = alloca ptr, align 8
  %6 = alloca ptr, align 8
  %7 = alloca ptr, align 8
  %8 = alloca ptr, align 8
  %9 = alloca ptr, align 8
  %10 = alloca ptr, align 8
  %11 = alloca ptr, align 8
  store ptr %0, ptr %5, align 8
  store ptr %1, ptr %6, align 8
  store ptr %2, ptr %7, align 8
  %12 = load ptr, ptr %5, align 8
  %13 = getelementptr inbounds %struct.lexbor_bst, ptr %12, i32 0, i32 2
  %14 = load i64, ptr %13, align 8
  %15 = add i64 %14, -1
  store i64 %15, ptr %13, align 8
  %16 = load ptr, ptr %6, align 8
  %17 = getelementptr inbounds %struct.lexbor_bst_entry, ptr %16, i32 0, i32 3
  %18 = load ptr, ptr %17, align 8
  %19 = icmp ne ptr %18, null
  br i1 %19, label %20, label %40

20:                                               ; preds = %3
  %21 = load ptr, ptr %6, align 8
  %22 = getelementptr inbounds %struct.lexbor_bst_entry, ptr %21, i32 0, i32 3
  %23 = load ptr, ptr %22, align 8
  store ptr %23, ptr %9, align 8
  %24 = load ptr, ptr %6, align 8
  %25 = getelementptr inbounds %struct.lexbor_bst_entry, ptr %24, i32 0, i32 3
  %26 = load ptr, ptr %25, align 8
  %27 = getelementptr inbounds %struct.lexbor_bst_entry, ptr %26, i32 0, i32 3
  %28 = load ptr, ptr %27, align 8
  %29 = load ptr, ptr %6, align 8
  %30 = getelementptr inbounds %struct.lexbor_bst_entry, ptr %29, i32 0, i32 3
  store ptr %28, ptr %30, align 8
  %31 = load ptr, ptr %9, align 8
  %32 = getelementptr inbounds %struct.lexbor_bst_entry, ptr %31, i32 0, i32 0
  %33 = load ptr, ptr %32, align 8
  store ptr %33, ptr %8, align 8
  %34 = load ptr, ptr %5, align 8
  %35 = getelementptr inbounds %struct.lexbor_bst, ptr %34, i32 0, i32 0
  %36 = load ptr, ptr %35, align 8
  %37 = load ptr, ptr %9, align 8
  %38 = call ptr @lexbor_dobject_free(ptr noundef %36, ptr noundef %37)
  %39 = load ptr, ptr %8, align 8
  store ptr %39, ptr %4, align 8
  br label %305

40:                                               ; preds = %3
  %41 = load ptr, ptr %6, align 8
  %42 = getelementptr inbounds %struct.lexbor_bst_entry, ptr %41, i32 0, i32 0
  %43 = load ptr, ptr %42, align 8
  store ptr %43, ptr %8, align 8
  %44 = load ptr, ptr %6, align 8
  %45 = getelementptr inbounds %struct.lexbor_bst_entry, ptr %44, i32 0, i32 2
  %46 = load ptr, ptr %45, align 8
  %47 = icmp eq ptr %46, null
  br i1 %47, label %48, label %93

48:                                               ; preds = %40
  %49 = load ptr, ptr %6, align 8
  %50 = getelementptr inbounds %struct.lexbor_bst_entry, ptr %49, i32 0, i32 1
  %51 = load ptr, ptr %50, align 8
  %52 = icmp eq ptr %51, null
  br i1 %52, label %53, label %93

53:                                               ; preds = %48
  %54 = load ptr, ptr %6, align 8
  %55 = getelementptr inbounds %struct.lexbor_bst_entry, ptr %54, i32 0, i32 4
  %56 = load ptr, ptr %55, align 8
  %57 = icmp ne ptr %56, null
  br i1 %57, label %58, label %85

58:                                               ; preds = %53
  %59 = load ptr, ptr %6, align 8
  %60 = getelementptr inbounds %struct.lexbor_bst_entry, ptr %59, i32 0, i32 4
  %61 = load ptr, ptr %60, align 8
  %62 = getelementptr inbounds %struct.lexbor_bst_entry, ptr %61, i32 0, i32 2
  %63 = load ptr, ptr %62, align 8
  %64 = load ptr, ptr %6, align 8
  %65 = icmp eq ptr %63, %64
  br i1 %65, label %66, label %71

66:                                               ; preds = %58
  %67 = load ptr, ptr %6, align 8
  %68 = getelementptr inbounds %struct.lexbor_bst_entry, ptr %67, i32 0, i32 4
  %69 = load ptr, ptr %68, align 8
  %70 = getelementptr inbounds %struct.lexbor_bst_entry, ptr %69, i32 0, i32 2
  store ptr null, ptr %70, align 8
  br label %71

71:                                               ; preds = %66, %58
  %72 = load ptr, ptr %6, align 8
  %73 = getelementptr inbounds %struct.lexbor_bst_entry, ptr %72, i32 0, i32 4
  %74 = load ptr, ptr %73, align 8
  %75 = getelementptr inbounds %struct.lexbor_bst_entry, ptr %74, i32 0, i32 1
  %76 = load ptr, ptr %75, align 8
  %77 = load ptr, ptr %6, align 8
  %78 = icmp eq ptr %76, %77
  br i1 %78, label %79, label %84

79:                                               ; preds = %71
  %80 = load ptr, ptr %6, align 8
  %81 = getelementptr inbounds %struct.lexbor_bst_entry, ptr %80, i32 0, i32 4
  %82 = load ptr, ptr %81, align 8
  %83 = getelementptr inbounds %struct.lexbor_bst_entry, ptr %82, i32 0, i32 1
  store ptr null, ptr %83, align 8
  br label %84

84:                                               ; preds = %79, %71
  br label %87

85:                                               ; preds = %53
  %86 = load ptr, ptr %7, align 8
  store ptr null, ptr %86, align 8
  br label %87

87:                                               ; preds = %85, %84
  %88 = load ptr, ptr %5, align 8
  %89 = getelementptr inbounds %struct.lexbor_bst, ptr %88, i32 0, i32 0
  %90 = load ptr, ptr %89, align 8
  %91 = load ptr, ptr %6, align 8
  %92 = call ptr @lexbor_dobject_free(ptr noundef %90, ptr noundef %91)
  br label %303

93:                                               ; preds = %48, %40
  %94 = load ptr, ptr %6, align 8
  %95 = getelementptr inbounds %struct.lexbor_bst_entry, ptr %94, i32 0, i32 2
  %96 = load ptr, ptr %95, align 8
  %97 = icmp eq ptr %96, null
  br i1 %97, label %98, label %158

98:                                               ; preds = %93
  %99 = load ptr, ptr %6, align 8
  %100 = getelementptr inbounds %struct.lexbor_bst_entry, ptr %99, i32 0, i32 4
  %101 = load ptr, ptr %100, align 8
  %102 = icmp eq ptr %101, null
  br i1 %102, label %103, label %119

103:                                              ; preds = %98
  %104 = load ptr, ptr %6, align 8
  %105 = getelementptr inbounds %struct.lexbor_bst_entry, ptr %104, i32 0, i32 1
  %106 = load ptr, ptr %105, align 8
  %107 = getelementptr inbounds %struct.lexbor_bst_entry, ptr %106, i32 0, i32 4
  store ptr null, ptr %107, align 8
  %108 = load ptr, ptr %6, align 8
  %109 = getelementptr inbounds %struct.lexbor_bst_entry, ptr %108, i32 0, i32 1
  %110 = load ptr, ptr %109, align 8
  %111 = load ptr, ptr %7, align 8
  store ptr %110, ptr %111, align 8
  %112 = load ptr, ptr %5, align 8
  %113 = getelementptr inbounds %struct.lexbor_bst, ptr %112, i32 0, i32 0
  %114 = load ptr, ptr %113, align 8
  %115 = load ptr, ptr %6, align 8
  %116 = call ptr @lexbor_dobject_free(ptr noundef %114, ptr noundef %115)
  %117 = load ptr, ptr %7, align 8
  %118 = load ptr, ptr %117, align 8
  store ptr %118, ptr %6, align 8
  br label %135

119:                                              ; preds = %98
  %120 = load ptr, ptr %6, align 8
  %121 = getelementptr inbounds %struct.lexbor_bst_entry, ptr %120, i32 0, i32 1
  %122 = load ptr, ptr %121, align 8
  store ptr %122, ptr %10, align 8
  %123 = load ptr, ptr %6, align 8
  %124 = getelementptr inbounds %struct.lexbor_bst_entry, ptr %123, i32 0, i32 4
  %125 = load ptr, ptr %124, align 8
  %126 = load ptr, ptr %10, align 8
  %127 = getelementptr inbounds %struct.lexbor_bst_entry, ptr %126, i32 0, i32 4
  store ptr %125, ptr %127, align 8
  %128 = load ptr, ptr %6, align 8
  %129 = load ptr, ptr %10, align 8
  call void @llvm.memcpy.p0.p0.i64(ptr align 8 %128, ptr align 8 %129, i64 48, i1 false)
  %130 = load ptr, ptr %5, align 8
  %131 = getelementptr inbounds %struct.lexbor_bst, ptr %130, i32 0, i32 0
  %132 = load ptr, ptr %131, align 8
  %133 = load ptr, ptr %10, align 8
  %134 = call ptr @lexbor_dobject_free(ptr noundef %132, ptr noundef %133)
  br label %135

135:                                              ; preds = %119, %103
  %136 = load ptr, ptr %6, align 8
  %137 = getelementptr inbounds %struct.lexbor_bst_entry, ptr %136, i32 0, i32 1
  %138 = load ptr, ptr %137, align 8
  %139 = icmp ne ptr %138, null
  br i1 %139, label %140, label %146

140:                                              ; preds = %135
  %141 = load ptr, ptr %6, align 8
  %142 = load ptr, ptr %6, align 8
  %143 = getelementptr inbounds %struct.lexbor_bst_entry, ptr %142, i32 0, i32 1
  %144 = load ptr, ptr %143, align 8
  %145 = getelementptr inbounds %struct.lexbor_bst_entry, ptr %144, i32 0, i32 4
  store ptr %141, ptr %145, align 8
  br label %146

146:                                              ; preds = %140, %135
  %147 = load ptr, ptr %6, align 8
  %148 = getelementptr inbounds %struct.lexbor_bst_entry, ptr %147, i32 0, i32 2
  %149 = load ptr, ptr %148, align 8
  %150 = icmp ne ptr %149, null
  br i1 %150, label %151, label %157

151:                                              ; preds = %146
  %152 = load ptr, ptr %6, align 8
  %153 = load ptr, ptr %6, align 8
  %154 = getelementptr inbounds %struct.lexbor_bst_entry, ptr %153, i32 0, i32 2
  %155 = load ptr, ptr %154, align 8
  %156 = getelementptr inbounds %struct.lexbor_bst_entry, ptr %155, i32 0, i32 4
  store ptr %152, ptr %156, align 8
  br label %157

157:                                              ; preds = %151, %146
  br label %302

158:                                              ; preds = %93
  %159 = load ptr, ptr %6, align 8
  %160 = getelementptr inbounds %struct.lexbor_bst_entry, ptr %159, i32 0, i32 1
  %161 = load ptr, ptr %160, align 8
  %162 = icmp eq ptr %161, null
  br i1 %162, label %163, label %223

163:                                              ; preds = %158
  %164 = load ptr, ptr %6, align 8
  %165 = getelementptr inbounds %struct.lexbor_bst_entry, ptr %164, i32 0, i32 4
  %166 = load ptr, ptr %165, align 8
  %167 = icmp eq ptr %166, null
  br i1 %167, label %168, label %184

168:                                              ; preds = %163
  %169 = load ptr, ptr %6, align 8
  %170 = getelementptr inbounds %struct.lexbor_bst_entry, ptr %169, i32 0, i32 2
  %171 = load ptr, ptr %170, align 8
  %172 = getelementptr inbounds %struct.lexbor_bst_entry, ptr %171, i32 0, i32 4
  store ptr null, ptr %172, align 8
  %173 = load ptr, ptr %6, align 8
  %174 = getelementptr inbounds %struct.lexbor_bst_entry, ptr %173, i32 0, i32 2
  %175 = load ptr, ptr %174, align 8
  %176 = load ptr, ptr %7, align 8
  store ptr %175, ptr %176, align 8
  %177 = load ptr, ptr %5, align 8
  %178 = getelementptr inbounds %struct.lexbor_bst, ptr %177, i32 0, i32 0
  %179 = load ptr, ptr %178, align 8
  %180 = load ptr, ptr %6, align 8
  %181 = call ptr @lexbor_dobject_free(ptr noundef %179, ptr noundef %180)
  %182 = load ptr, ptr %7, align 8
  %183 = load ptr, ptr %182, align 8
  store ptr %183, ptr %6, align 8
  br label %200

184:                                              ; preds = %163
  %185 = load ptr, ptr %6, align 8
  %186 = getelementptr inbounds %struct.lexbor_bst_entry, ptr %185, i32 0, i32 2
  %187 = load ptr, ptr %186, align 8
  store ptr %187, ptr %11, align 8
  %188 = load ptr, ptr %6, align 8
  %189 = getelementptr inbounds %struct.lexbor_bst_entry, ptr %188, i32 0, i32 4
  %190 = load ptr, ptr %189, align 8
  %191 = load ptr, ptr %11, align 8
  %192 = getelementptr inbounds %struct.lexbor_bst_entry, ptr %191, i32 0, i32 4
  store ptr %190, ptr %192, align 8
  %193 = load ptr, ptr %6, align 8
  %194 = load ptr, ptr %11, align 8
  call void @llvm.memcpy.p0.p0.i64(ptr align 8 %193, ptr align 8 %194, i64 48, i1 false)
  %195 = load ptr, ptr %5, align 8
  %196 = getelementptr inbounds %struct.lexbor_bst, ptr %195, i32 0, i32 0
  %197 = load ptr, ptr %196, align 8
  %198 = load ptr, ptr %11, align 8
  %199 = call ptr @lexbor_dobject_free(ptr noundef %197, ptr noundef %198)
  br label %200

200:                                              ; preds = %184, %168
  %201 = load ptr, ptr %6, align 8
  %202 = getelementptr inbounds %struct.lexbor_bst_entry, ptr %201, i32 0, i32 1
  %203 = load ptr, ptr %202, align 8
  %204 = icmp ne ptr %203, null
  br i1 %204, label %205, label %211

205:                                              ; preds = %200
  %206 = load ptr, ptr %6, align 8
  %207 = load ptr, ptr %6, align 8
  %208 = getelementptr inbounds %struct.lexbor_bst_entry, ptr %207, i32 0, i32 1
  %209 = load ptr, ptr %208, align 8
  %210 = getelementptr inbounds %struct.lexbor_bst_entry, ptr %209, i32 0, i32 4
  store ptr %206, ptr %210, align 8
  br label %211

211:                                              ; preds = %205, %200
  %212 = load ptr, ptr %6, align 8
  %213 = getelementptr inbounds %struct.lexbor_bst_entry, ptr %212, i32 0, i32 2
  %214 = load ptr, ptr %213, align 8
  %215 = icmp ne ptr %214, null
  br i1 %215, label %216, label %222

216:                                              ; preds = %211
  %217 = load ptr, ptr %6, align 8
  %218 = load ptr, ptr %6, align 8
  %219 = getelementptr inbounds %struct.lexbor_bst_entry, ptr %218, i32 0, i32 2
  %220 = load ptr, ptr %219, align 8
  %221 = getelementptr inbounds %struct.lexbor_bst_entry, ptr %220, i32 0, i32 4
  store ptr %217, ptr %221, align 8
  br label %222

222:                                              ; preds = %216, %211
  br label %301

223:                                              ; preds = %158
  %224 = load ptr, ptr %6, align 8
  %225 = getelementptr inbounds %struct.lexbor_bst_entry, ptr %224, i32 0, i32 1
  %226 = load ptr, ptr %225, align 8
  store ptr %226, ptr %11, align 8
  br label %227

227:                                              ; preds = %232, %223
  %228 = load ptr, ptr %11, align 8
  %229 = getelementptr inbounds %struct.lexbor_bst_entry, ptr %228, i32 0, i32 2
  %230 = load ptr, ptr %229, align 8
  %231 = icmp ne ptr %230, null
  br i1 %231, label %232, label %236

232:                                              ; preds = %227
  %233 = load ptr, ptr %11, align 8
  %234 = getelementptr inbounds %struct.lexbor_bst_entry, ptr %233, i32 0, i32 2
  %235 = load ptr, ptr %234, align 8
  store ptr %235, ptr %11, align 8
  br label %227

236:                                              ; preds = %227
  %237 = load ptr, ptr %11, align 8
  %238 = getelementptr inbounds %struct.lexbor_bst_entry, ptr %237, i32 0, i32 5
  %239 = load i64, ptr %238, align 8
  %240 = load ptr, ptr %6, align 8
  %241 = getelementptr inbounds %struct.lexbor_bst_entry, ptr %240, i32 0, i32 5
  store i64 %239, ptr %241, align 8
  %242 = load ptr, ptr %11, align 8
  %243 = getelementptr inbounds %struct.lexbor_bst_entry, ptr %242, i32 0, i32 3
  %244 = load ptr, ptr %243, align 8
  %245 = load ptr, ptr %6, align 8
  %246 = getelementptr inbounds %struct.lexbor_bst_entry, ptr %245, i32 0, i32 3
  store ptr %244, ptr %246, align 8
  %247 = load ptr, ptr %11, align 8
  %248 = getelementptr inbounds %struct.lexbor_bst_entry, ptr %247, i32 0, i32 0
  %249 = load ptr, ptr %248, align 8
  %250 = load ptr, ptr %6, align 8
  %251 = getelementptr inbounds %struct.lexbor_bst_entry, ptr %250, i32 0, i32 0
  store ptr %249, ptr %251, align 8
  %252 = load ptr, ptr %6, align 8
  %253 = getelementptr inbounds %struct.lexbor_bst_entry, ptr %252, i32 0, i32 1
  %254 = load ptr, ptr %253, align 8
  %255 = load ptr, ptr %11, align 8
  %256 = icmp eq ptr %254, %255
  br i1 %256, label %257, label %274

257:                                              ; preds = %236
  %258 = load ptr, ptr %11, align 8
  %259 = getelementptr inbounds %struct.lexbor_bst_entry, ptr %258, i32 0, i32 1
  %260 = load ptr, ptr %259, align 8
  %261 = load ptr, ptr %6, align 8
  %262 = getelementptr inbounds %struct.lexbor_bst_entry, ptr %261, i32 0, i32 1
  store ptr %260, ptr %262, align 8
  %263 = load ptr, ptr %6, align 8
  %264 = getelementptr inbounds %struct.lexbor_bst_entry, ptr %263, i32 0, i32 1
  %265 = load ptr, ptr %264, align 8
  %266 = icmp ne ptr %265, null
  br i1 %266, label %267, label %273

267:                                              ; preds = %257
  %268 = load ptr, ptr %6, align 8
  %269 = load ptr, ptr %11, align 8
  %270 = getelementptr inbounds %struct.lexbor_bst_entry, ptr %269, i32 0, i32 1
  %271 = load ptr, ptr %270, align 8
  %272 = getelementptr inbounds %struct.lexbor_bst_entry, ptr %271, i32 0, i32 4
  store ptr %268, ptr %272, align 8
  br label %273

273:                                              ; preds = %267, %257
  br label %295

274:                                              ; preds = %236
  %275 = load ptr, ptr %11, align 8
  %276 = getelementptr inbounds %struct.lexbor_bst_entry, ptr %275, i32 0, i32 1
  %277 = load ptr, ptr %276, align 8
  %278 = load ptr, ptr %11, align 8
  %279 = getelementptr inbounds %struct.lexbor_bst_entry, ptr %278, i32 0, i32 4
  %280 = load ptr, ptr %279, align 8
  %281 = getelementptr inbounds %struct.lexbor_bst_entry, ptr %280, i32 0, i32 2
  store ptr %277, ptr %281, align 8
  %282 = load ptr, ptr %11, align 8
  %283 = getelementptr inbounds %struct.lexbor_bst_entry, ptr %282, i32 0, i32 1
  %284 = load ptr, ptr %283, align 8
  %285 = icmp ne ptr %284, null
  br i1 %285, label %286, label %294

286:                                              ; preds = %274
  %287 = load ptr, ptr %11, align 8
  %288 = getelementptr inbounds %struct.lexbor_bst_entry, ptr %287, i32 0, i32 4
  %289 = load ptr, ptr %288, align 8
  %290 = load ptr, ptr %11, align 8
  %291 = getelementptr inbounds %struct.lexbor_bst_entry, ptr %290, i32 0, i32 1
  %292 = load ptr, ptr %291, align 8
  %293 = getelementptr inbounds %struct.lexbor_bst_entry, ptr %292, i32 0, i32 4
  store ptr %289, ptr %293, align 8
  br label %294

294:                                              ; preds = %286, %274
  br label %295

295:                                              ; preds = %294, %273
  %296 = load ptr, ptr %5, align 8
  %297 = getelementptr inbounds %struct.lexbor_bst, ptr %296, i32 0, i32 0
  %298 = load ptr, ptr %297, align 8
  %299 = load ptr, ptr %11, align 8
  %300 = call ptr @lexbor_dobject_free(ptr noundef %298, ptr noundef %299)
  br label %301

301:                                              ; preds = %295, %222
  br label %302

302:                                              ; preds = %301, %157
  br label %303

303:                                              ; preds = %302, %87
  %304 = load ptr, ptr %8, align 8
  store ptr %304, ptr %4, align 8
  br label %305

305:                                              ; preds = %303, %20
  %306 = load ptr, ptr %4, align 8
  ret ptr %306
}