; Function Attrs: nounwind uwtable
define hidden ptr @lexbor_bst_remove_by_pointer(ptr nocapture noundef %0, ptr noundef %1, ptr nocapture noundef %2) local_unnamed_addr #0 {
  %4 = getelementptr inbounds i8, ptr %0, i64 16
  %5 = load i64, ptr %4, align 8
  %6 = add i64 %5, -1
  store i64 %6, ptr %4, align 8
  %7 = getelementptr inbounds i8, ptr %1, i64 24
  %8 = load ptr, ptr %7, align 8
  %.not = icmp eq ptr %8, null
  br i1 %.not, label %15, label %9

9:                                                ; preds = %3
  %10 = getelementptr inbounds i8, ptr %8, i64 24
  %11 = load ptr, ptr %10, align 8
  store ptr %11, ptr %7, align 8
  %12 = load ptr, ptr %8, align 8
  %13 = load ptr, ptr %0, align 8
  %14 = tail call ptr @lexbor_dobject_free(ptr noundef %13, ptr noundef nonnull %8) #5
  br label %109

15:                                               ; preds = %3
  %16 = load ptr, ptr %1, align 8
  %17 = getelementptr inbounds i8, ptr %1, i64 16
  %18 = load ptr, ptr %17, align 8
  %19 = icmp eq ptr %18, null
  %20 = getelementptr inbounds i8, ptr %1, i64 8
  %21 = load ptr, ptr %20, align 8
  %22 = icmp eq ptr %21, null
  br i1 %19, label %23, label %60

23:                                               ; preds = %15
  %24 = getelementptr inbounds i8, ptr %1, i64 32
  %25 = load ptr, ptr %24, align 8
  %.not110 = icmp eq ptr %25, null
  br i1 %22, label %26, label %40

26:                                               ; preds = %23
  br i1 %.not110, label %.sink.split, label %27

27:                                               ; preds = %26
  %28 = getelementptr inbounds i8, ptr %25, i64 16
  %29 = load ptr, ptr %28, align 8
  %30 = icmp eq ptr %29, %1
  br i1 %30, label %31, label %32

31:                                               ; preds = %27
  store ptr null, ptr %28, align 8
  %.pre = load ptr, ptr %24, align 8
  br label %32

32:                                               ; preds = %31, %27
  %33 = phi ptr [ %.pre, %31 ], [ %25, %27 ]
  %34 = getelementptr inbounds i8, ptr %33, i64 8
  %35 = load ptr, ptr %34, align 8
  %36 = icmp eq ptr %35, %1
  br i1 %36, label %.sink.split, label %37

.sink.split:                                      ; preds = %26, %32
  %.sink = phi ptr [ %34, %32 ], [ %2, %26 ]
  store ptr null, ptr %.sink, align 8
  br label %37

37:                                               ; preds = %.sink.split, %32
  %38 = load ptr, ptr %0, align 8
  %39 = tail call ptr @lexbor_dobject_free(ptr noundef %38, ptr noundef nonnull %1) #5
  br label %109

40:                                               ; preds = %23
  %41 = getelementptr inbounds i8, ptr %21, i64 32
  br i1 %.not110, label %42, label %47

42:                                               ; preds = %40
  store ptr null, ptr %41, align 8
  %43 = load ptr, ptr %20, align 8
  store ptr %43, ptr %2, align 8
  %44 = load ptr, ptr %0, align 8
  %45 = tail call ptr @lexbor_dobject_free(ptr noundef %44, ptr noundef nonnull %1) #5
  %46 = load ptr, ptr %2, align 8
  br label %50

47:                                               ; preds = %40
  store ptr %25, ptr %41, align 8
  tail call void @llvm.memcpy.p0.p0.i64(ptr noundef nonnull align 8 dereferenceable(48) %1, ptr noundef nonnull align 8 dereferenceable(48) %21, i64 48, i1 false)
  %48 = load ptr, ptr %0, align 8
  %49 = tail call ptr @lexbor_dobject_free(ptr noundef %48, ptr noundef nonnull %21) #5
  br label %50

50:                                               ; preds = %47, %42
  %.090 = phi ptr [ %46, %42 ], [ %1, %47 ]
  %51 = getelementptr inbounds i8, ptr %.090, i64 8
  %52 = load ptr, ptr %51, align 8
  %.not108 = icmp eq ptr %52, null
  br i1 %.not108, label %55, label %53

53:                                               ; preds = %50
  %54 = getelementptr inbounds i8, ptr %52, i64 32
  store ptr %.090, ptr %54, align 8
  br label %55

55:                                               ; preds = %53, %50
  %56 = getelementptr inbounds i8, ptr %.090, i64 16
  %57 = load ptr, ptr %56, align 8
  %.not109 = icmp eq ptr %57, null
  br i1 %.not109, label %109, label %58

58:                                               ; preds = %55
  %59 = getelementptr inbounds i8, ptr %57, i64 32
  store ptr %.090, ptr %59, align 8
  br label %109

60:                                               ; preds = %15
  br i1 %22, label %61, label %.preheader

61:                                               ; preds = %60
  %62 = getelementptr inbounds i8, ptr %1, i64 32
  %63 = load ptr, ptr %62, align 8
  %64 = icmp eq ptr %63, null
  %65 = getelementptr inbounds i8, ptr %18, i64 32
  br i1 %64, label %66, label %71

66:                                               ; preds = %61
  store ptr null, ptr %65, align 8
  %67 = load ptr, ptr %17, align 8
  store ptr %67, ptr %2, align 8
  %68 = load ptr, ptr %0, align 8
  %69 = tail call ptr @lexbor_dobject_free(ptr noundef %68, ptr noundef nonnull %1) #5
  %70 = load ptr, ptr %2, align 8
  br label %74

71:                                               ; preds = %61
  store ptr %63, ptr %65, align 8
  tail call void @llvm.memcpy.p0.p0.i64(ptr noundef nonnull align 8 dereferenceable(48) %1, ptr noundef nonnull align 8 dereferenceable(48) %18, i64 48, i1 false)
  %72 = load ptr, ptr %0, align 8
  %73 = tail call ptr @lexbor_dobject_free(ptr noundef %72, ptr noundef nonnull %18) #5
  br label %74

74:                                               ; preds = %71, %66
  %.1 = phi ptr [ %70, %66 ], [ %1, %71 ]
  %75 = getelementptr inbounds i8, ptr %.1, i64 8
  %76 = load ptr, ptr %75, align 8
  %.not106 = icmp eq ptr %76, null
  br i1 %.not106, label %79, label %77

77:                                               ; preds = %74
  %78 = getelementptr inbounds i8, ptr %76, i64 32
  store ptr %.1, ptr %78, align 8
  br label %79

79:                                               ; preds = %77, %74
  %80 = getelementptr inbounds i8, ptr %.1, i64 16
  %81 = load ptr, ptr %80, align 8
  %.not107 = icmp eq ptr %81, null
  br i1 %.not107, label %109, label %82

82:                                               ; preds = %79
  %83 = getelementptr inbounds i8, ptr %81, i64 32
  store ptr %.1, ptr %83, align 8
  br label %109

.preheader:                                       ; preds = %60, %.preheader
  %.0 = phi ptr [ %85, %.preheader ], [ %21, %60 ]
  %84 = getelementptr inbounds i8, ptr %.0, i64 16
  %85 = load ptr, ptr %84, align 8
  %.not103 = icmp eq ptr %85, null
  br i1 %.not103, label %86, label %.preheader

86:                                               ; preds = %.preheader
  %87 = getelementptr inbounds i8, ptr %.0, i64 40
  %88 = load i64, ptr %87, align 8
  %89 = getelementptr inbounds i8, ptr %1, i64 40
  store i64 %88, ptr %89, align 8
  %90 = getelementptr inbounds i8, ptr %.0, i64 24
  %91 = load ptr, ptr %90, align 8
  store ptr %91, ptr %7, align 8
  %92 = load ptr, ptr %.0, align 8
  store ptr %92, ptr %1, align 8
  %93 = icmp eq ptr %21, %.0
  br i1 %93, label %94, label %97

94:                                               ; preds = %86
  %95 = getelementptr inbounds i8, ptr %21, i64 8
  %96 = load ptr, ptr %95, align 8
  store ptr %96, ptr %20, align 8
  %.not105 = icmp eq ptr %96, null
  br i1 %.not105, label %106, label %.sink.split111

97:                                               ; preds = %86
  %98 = getelementptr inbounds i8, ptr %.0, i64 8
  %99 = load ptr, ptr %98, align 8
  %100 = getelementptr inbounds i8, ptr %.0, i64 32
  %101 = load ptr, ptr %100, align 8
  %102 = getelementptr inbounds i8, ptr %101, i64 16
  store ptr %99, ptr %102, align 8
  %.not104 = icmp eq ptr %99, null
  br i1 %.not104, label %106, label %103

103:                                              ; preds = %97
  %104 = load ptr, ptr %100, align 8
  br label %.sink.split111

.sink.split111:                                   ; preds = %94, %103
  %.sink114 = phi ptr [ %99, %103 ], [ %96, %94 ]
  %.sink112 = phi ptr [ %104, %103 ], [ %1, %94 ]
  %105 = getelementptr inbounds i8, ptr %.sink114, i64 32
  store ptr %.sink112, ptr %105, align 8
  br label %106

106:                                              ; preds = %.sink.split111, %97, %94
  %107 = load ptr, ptr %0, align 8
  %108 = tail call ptr @lexbor_dobject_free(ptr noundef %107, ptr noundef nonnull %.0) #5
  br label %109

109:                                              ; preds = %37, %106, %82, %79, %55, %58, %9
  %.089 = phi ptr [ %12, %9 ], [ %16, %58 ], [ %16, %55 ], [ %16, %79 ], [ %16, %82 ], [ %16, %106 ], [ %16, %37 ]
  ret ptr %.089
}